; ModuleID = '50/2635.c'
source_filename = "50/2635.c"
target datalayout = "e-m:e-p270:32:32-p271:32:32-p272:64:64-i64:64-f80:128-n8:16:32:64-S128"
target triple = "x86_64-pc-linux-gnu"

@.str = private unnamed_addr constant [3 x i8] c"%d\00", align 1
@__const.main.mouth = private unnamed_addr constant [12 x i32] [i32 31, i32 28, i32 31, i32 30, i32 31, i32 30, i32 31, i32 31, i32 30, i32 31, i32 30, i32 31], align 16
@.str.1 = private unnamed_addr constant [4 x i8] c"%d\0A\00", align 1

; Function Attrs: noinline nounwind uwtable
define dso_local i32 @main() #0 {
  %1 = alloca i32, align 4
  %2 = alloca i32, align 4
  %3 = alloca i32, align 4
  %4 = alloca [12 x i32], align 16
  store i32 0, i32* %1, align 4
  %5 = call i32 (i8*, ...) @__isoc99_scanf(i8* getelementptr inbounds ([3 x i8], [3 x i8]* @.str, i64 0, i64 0), i32* %2)
  %6 = load i32, i32* %2, align 4
  %7 = icmp sgt i32 %6, 2
  br i1 %7, label %8, label %11

8:                                                ; preds = %0
  %9 = load i32, i32* %2, align 4
  %10 = sub nsw i32 %9, 2
  store i32 %10, i32* %2, align 4
  br label %21

11:                                               ; preds = %0
  %12 = load i32, i32* %2, align 4
  %13 = icmp eq i32 %12, 2
  br i1 %13, label %14, label %15

14:                                               ; preds = %11
  store i32 7, i32* %2, align 4
  br label %20

15:                                               ; preds = %11
  %16 = load i32, i32* %2, align 4
  %17 = icmp eq i32 %16, 1
  br i1 %17, label %18, label %19

18:                                               ; preds = %15
  store i32 6, i32* %2, align 4
  br label %19

19:                                               ; preds = %18, %15
  br label %20

20:                                               ; preds = %19, %14
  br label %21

21:                                               ; preds = %20, %8
  %22 = bitcast [12 x i32]* %4 to i8*
  call void @llvm.memcpy.p0i8.p0i8.i64(i8* align 16 %22, i8* align 16 bitcast ([12 x i32]* @__const.main.mouth to i8*), i64 48, i1 false)
  store i32 0, i32* %3, align 4
  br label %23

23:                                               ; preds = %43, %21
  %24 = load i32, i32* %3, align 4
  %25 = icmp slt i32 %24, 12
  br i1 %25, label %26, label %46

26:                                               ; preds = %23
  %27 = load i32, i32* %2, align 4
  %28 = icmp eq i32 %27, 5
  br i1 %28, label %29, label %33

29:                                               ; preds = %26
  %30 = load i32, i32* %3, align 4
  %31 = add nsw i32 %30, 1
  %32 = call i32 (i8*, ...) @printf(i8* getelementptr inbounds ([4 x i8], [4 x i8]* @.str.1, i64 0, i64 0), i32 %31)
  br label %33

33:                                               ; preds = %29, %26
  %34 = load i32, i32* %2, align 4
  %35 = load i32, i32* %3, align 4
  %36 = sext i32 %35 to i64
  %37 = getelementptr inbounds [12 x i32], [12 x i32]* %4, i64 0, i64 %36
  %38 = load i32, i32* %37, align 4
  %39 = srem i32 %38, 7
  %40 = add nsw i32 %34, %39
  store i32 %40, i32* %2, align 4
  %41 = load i32, i32* %2, align 4
  %42 = srem i32 %41, 7
  store i32 %42, i32* %2, align 4
  br label %43

43:                                               ; preds = %33
  %44 = load i32, i32* %3, align 4
  %45 = add nsw i32 %44, 1
  store i32 %45, i32* %3, align 4
  br label %23

46:                                               ; preds = %23
  %47 = load i32, i32* %1, align 4
  ret i32 %47
}

declare dso_local i32 @__isoc99_scanf(i8*, ...) #1

; Function Attrs: argmemonly nounwind willreturn
declare void @llvm.memcpy.p0i8.p0i8.i64(i8* noalias nocapture writeonly, i8* noalias nocapture readonly, i64, i1 immarg) #2

declare dso_local i32 @printf(i8*, ...) #1


!llvm.module.flags = !{!0}
!llvm.ident = !{!1}

!0 = !{i32 1, !"wchar_size", i32 4}
!1 = !{!"clang version 10.0.0-4ubuntu1 "}
